; ModuleID = '20/157.c'
source_filename = "20/157.c"
target datalayout = "e-m:e-p270:32:32-p271:32:32-p272:64:64-i64:64-f80:128-n8:16:32:64-S128"
target triple = "x86_64-pc-linux-gnu"

@.str = private unnamed_addr constant [5 x i8] c"%s%s\00", align 1
@.str.1 = private unnamed_addr constant [4 x i8] c"%s\0A\00", align 1

; Function Attrs: noinline nounwind uwtable
define dso_local void @main() #0 {
  %1 = alloca [100 x [11 x i8]], align 16
  %2 = alloca [100 x [4 x i8]], align 16
  %3 = alloca [100 x [15 x i8]], align 16
  %4 = alloca i32, align 4
  %5 = alloca i32, align 4
  %6 = alloca i32, align 4
  %7 = alloca i32, align 4
  %8 = alloca i32, align 4
  %9 = alloca i32, align 4
  %10 = alloca i32, align 4
  %11 = alloca i32, align 4
  store i32 1, i32* %5, align 4
  br label %12

12:                                               ; preds = %152, %0
  %13 = load i32, i32* %5, align 4
  %14 = sext i32 %13 to i64
  %15 = getelementptr inbounds [100 x [11 x i8]], [100 x [11 x i8]]* %1, i64 0, i64 %14
  %16 = getelementptr inbounds [11 x i8], [11 x i8]* %15, i64 0, i64 0
  %17 = load i32, i32* %5, align 4
  %18 = sext i32 %17 to i64
  %19 = getelementptr inbounds [100 x [4 x i8]], [100 x [4 x i8]]* %2, i64 0, i64 %18
  %20 = getelementptr inbounds [4 x i8], [4 x i8]* %19, i64 0, i64 0
  %21 = call i32 (i8*, ...) @__isoc99_scanf(i8* getelementptr inbounds ([5 x i8], [5 x i8]* @.str, i64 0, i64 0), i8* %16, i8* %20)
  %22 = icmp ne i32 %21, -1
  br i1 %22, label %23, label %155

23:                                               ; preds = %12
  %24 = load i32, i32* %5, align 4
  %25 = sext i32 %24 to i64
  %26 = getelementptr inbounds [100 x [11 x i8]], [100 x [11 x i8]]* %1, i64 0, i64 %25
  %27 = getelementptr inbounds [11 x i8], [11 x i8]* %26, i64 0, i64 0
  %28 = call i64 @strlen(i8* %27) #4
  %29 = trunc i64 %28 to i32
  store i32 %29, i32* %10, align 4
  %30 = load i32, i32* %5, align 4
  %31 = sext i32 %30 to i64
  %32 = getelementptr inbounds [100 x [4 x i8]], [100 x [4 x i8]]* %2, i64 0, i64 %31
  %33 = getelementptr inbounds [4 x i8], [4 x i8]* %32, i64 0, i64 0
  %34 = call i64 @strlen(i8* %33) #4
  %35 = trunc i64 %34 to i32
  store i32 %35, i32* %11, align 4
  store i32 0, i32* %6, align 4
  br label %36

36:                                               ; preds = %80, %23
  %37 = load i32, i32* %6, align 4
  %38 = load i32, i32* %10, align 4
  %39 = sub nsw i32 %38, 1
  %40 = icmp sle i32 %37, %39
  br i1 %40, label %41, label %83

41:                                               ; preds = %36
  store i32 0, i32* %8, align 4
  store i32 0, i32* %7, align 4
  br label %42

42:                                               ; preds = %69, %41
  %43 = load i32, i32* %7, align 4
  %44 = load i32, i32* %10, align 4
  %45 = sub nsw i32 %44, 1
  %46 = icmp sle i32 %43, %45
  br i1 %46, label %47, label %72

47:                                               ; preds = %42
  %48 = load i32, i32* %5, align 4
  %49 = sext i32 %48 to i64
  %50 = getelementptr inbounds [100 x [11 x i8]], [100 x [11 x i8]]* %1, i64 0, i64 %49
  %51 = load i32, i32* %6, align 4
  %52 = sext i32 %51 to i64
  %53 = getelementptr inbounds [11 x i8], [11 x i8]* %50, i64 0, i64 %52
  %54 = load i8, i8* %53, align 1
  %55 = sext i8 %54 to i32
  %56 = load i32, i32* %5, align 4
  %57 = sext i32 %56 to i64
  %58 = getelementptr inbounds [100 x [11 x i8]], [100 x [11 x i8]]* %1, i64 0, i64 %57
  %59 = load i32, i32* %7, align 4
  %60 = sext i32 %59 to i64
  %61 = getelementptr inbounds [11 x i8], [11 x i8]* %58, i64 0, i64 %60
  %62 = load i8, i8* %61, align 1
  %63 = sext i8 %62 to i32
  %64 = icmp sge i32 %55, %63
  br i1 %64, label %65, label %68

65:                                               ; preds = %47
  %66 = load i32, i32* %8, align 4
  %67 = add nsw i32 %66, 1
  store i32 %67, i32* %8, align 4
  br label %68

68:                                               ; preds = %65, %47
  br label %69

69:                                               ; preds = %68
  %70 = load i32, i32* %7, align 4
  %71 = add nsw i32 %70, 1
  store i32 %71, i32* %7, align 4
  br label %42

72:                                               ; preds = %42
  %73 = load i32, i32* %8, align 4
  %74 = load i32, i32* %10, align 4
  %75 = icmp eq i32 %73, %74
  br i1 %75, label %76, label %79

76:                                               ; preds = %72
  %77 = load i32, i32* %6, align 4
  %78 = add nsw i32 %77, 1
  store i32 %78, i32* %9, align 4
  br label %83

79:                                               ; preds = %72
  br label %80

80:                                               ; preds = %79
  %81 = load i32, i32* %6, align 4
  %82 = add nsw i32 %81, 1
  store i32 %82, i32* %6, align 4
  br label %36

83:                                               ; preds = %76, %36
  %84 = load i32, i32* %5, align 4
  %85 = sext i32 %84 to i64
  %86 = getelementptr inbounds [100 x [15 x i8]], [100 x [15 x i8]]* %3, i64 0, i64 %85
  %87 = getelementptr inbounds [15 x i8], [15 x i8]* %86, i64 0, i64 0
  %88 = load i32, i32* %5, align 4
  %89 = sext i32 %88 to i64
  %90 = getelementptr inbounds [100 x [11 x i8]], [100 x [11 x i8]]* %1, i64 0, i64 %89
  %91 = getelementptr inbounds [11 x i8], [11 x i8]* %90, i64 0, i64 0
  %92 = load i32, i32* %9, align 4
  %93 = sext i32 %92 to i64
  %94 = call i8* @strncpy(i8* %87, i8* %91, i64 %93) #5
  %95 = load i32, i32* %5, align 4
  %96 = sext i32 %95 to i64
  %97 = getelementptr inbounds [100 x [15 x i8]], [100 x [15 x i8]]* %3, i64 0, i64 %96
  %98 = load i32, i32* %9, align 4
  %99 = sext i32 %98 to i64
  %100 = getelementptr inbounds [15 x i8], [15 x i8]* %97, i64 0, i64 %99
  store i8 0, i8* %100, align 1
  %101 = load i32, i32* %5, align 4
  %102 = sext i32 %101 to i64
  %103 = getelementptr inbounds [100 x [15 x i8]], [100 x [15 x i8]]* %3, i64 0, i64 %102
  %104 = getelementptr inbounds [15 x i8], [15 x i8]* %103, i64 0, i64 0
  %105 = load i32, i32* %5, align 4
  %106 = sext i32 %105 to i64
  %107 = getelementptr inbounds [100 x [4 x i8]], [100 x [4 x i8]]* %2, i64 0, i64 %106
  %108 = getelementptr inbounds [4 x i8], [4 x i8]* %107, i64 0, i64 0
  %109 = call i8* @strcat(i8* %104, i8* %108) #5
  %110 = load i32, i32* %9, align 4
  %111 = load i32, i32* %11, align 4
  %112 = add nsw i32 %110, %111
  store i32 %112, i32* %6, align 4
  br label %113

113:                                              ; preds = %135, %83
  %114 = load i32, i32* %6, align 4
  %115 = load i32, i32* %10, align 4
  %116 = load i32, i32* %11, align 4
  %117 = add nsw i32 %115, %116
  %118 = icmp slt i32 %114, %117
  br i1 %118, label %119, label %138

119:                                              ; preds = %113
  %120 = load i32, i32* %5, align 4
  %121 = sext i32 %120 to i64
  %122 = getelementptr inbounds [100 x [11 x i8]], [100 x [11 x i8]]* %1, i64 0, i64 %121
  %123 = load i32, i32* %6, align 4
  %124 = load i32, i32* %11, align 4
  %125 = sub nsw i32 %123, %124
  %126 = sext i32 %125 to i64
  %127 = getelementptr inbounds [11 x i8], [11 x i8]* %122, i64 0, i64 %126
  %128 = load i8, i8* %127, align 1
  %129 = load i32, i32* %5, align 4
  %130 = sext i32 %129 to i64
  %131 = getelementptr inbounds [100 x [15 x i8]], [100 x [15 x i8]]* %3, i64 0, i64 %130
  %132 = load i32, i32* %6, align 4
  %133 = sext i32 %132 to i64
  %134 = getelementptr inbounds [15 x i8], [15 x i8]* %131, i64 0, i64 %133
  store i8 %128, i8* %134, align 1
  br label %135

135:                                              ; preds = %119
  %136 = load i32, i32* %6, align 4
  %137 = add nsw i32 %136, 1
  store i32 %137, i32* %6, align 4
  br label %113

138:                                              ; preds = %113
  %139 = load i32, i32* %5, align 4
  %140 = sext i32 %139 to i64
  %141 = getelementptr inbounds [100 x [15 x i8]], [100 x [15 x i8]]* %3, i64 0, i64 %140
  %142 = load i32, i32* %10, align 4
  %143 = load i32, i32* %11, align 4
  %144 = add nsw i32 %142, %143
  %145 = sext i32 %144 to i64
  %146 = getelementptr inbounds [15 x i8], [15 x i8]* %141, i64 0, i64 %145
  store i8 0, i8* %146, align 1
  %147 = load i32, i32* %5, align 4
  %148 = sext i32 %147 to i64
  %149 = getelementptr inbounds [100 x [15 x i8]], [100 x [15 x i8]]* %3, i64 0, i64 %148
  %150 = getelementptr inbounds [15 x i8], [15 x i8]* %149, i64 0, i64 0
  %151 = call i32 (i8*, ...) @printf(i8* getelementptr inbounds ([4 x i8], [4 x i8]* @.str.1, i64 0, i64 0), i8* %150)
  br label %152

152:                                              ; preds = %138
  %153 = load i32, i32* %5, align 4
  %154 = add nsw i32 %153, 1
  store i32 %154, i32* %5, align 4
  br label %12

155:                                              ; preds = %12
  ret void
}

declare dso_local i32 @__isoc99_scanf(i8*, ...) #1

; Function Attrs: nounwind readonly
declare dso_local i64 @strlen(i8*) #2

; Function Attrs: nounwind
declare dso_local i8* @strncpy(i8*, i8*, i64) #3

; Function Attrs: nounwind
declare dso_local i8* @strcat(i8*, i8*) #3

declare dso_local i32 @printf(i8*, ...) #1


!llvm.module.flags = !{!0}
!llvm.ident = !{!1}

!0 = !{i32 1, !"wchar_size", i32 4}
!1 = !{!"clang version 10.0.0-4ubuntu1 "}
